target datalayout = "e-m:e-p270:32:32-p271:32:32-p272:64:64-i64:64-i128:128-f80:128-n8:16:32:64-S128"
target triple = "x86_64-pc-linux-gnu"

%struct.AVCodecContext = type { ptr, i32, i32, ptr, i32, i32, ptr, ptr, ptr, i64, i32, i32, ptr, i32, %struct.AVRational, %struct.AVRational, %struct.AVRational, i32, i32, i32, i32, i32, %struct.AVRational, i32, i32, i32, i32, i32, i32, i32, i32, i32, i32, i32, ptr, ptr, i32, float, float, float, float, float, float, float, float, float, i32, i32, i32, i32, i32, i32, i32, i32, i32, i32, i32, i32, ptr, ptr, ptr, i32, i32, i32, i32, i32, i32, i32, i32, i32, i32, %struct.AVChannelLayout, i32, i32, i32, i32, i32, i32, i32, i32, ptr, i32, i32, i32, float, float, i32, i32, i32, i32, i32, ptr, i64, i64, float, float, i32, i32, ptr, ptr, i32, i32, i32, i32, i32, ptr, ptr, ptr, ptr, i32, i32, [8 x i64], i32, i32, i32, i32, i32, i32, i32, ptr, ptr, i32, i32, i32, i32, i32, i32, i32, i32, i32, i32, ptr, ptr, i32, i32, ptr, ptr, ptr, ptr, i32, i32, i64, i32, i32, i64, ptr, i64, ptr, i32, ptr, i32 }
%struct.AVRational = type { i32, i32 }
%struct.AVChannelLayout = type { i32, i32, %union.anon.0, ptr }
%union.anon.0 = type { i64 }

@.str.2 = private unnamed_addr constant [41 x i8] c"Only 720x486 and 720x576 are supported.\0A\00", align 1
@.str.3 = private unnamed_addr constant [17 x i8] c"\00\00\00\18APRGAPRG0001\00", align 1
@.str.4 = private unnamed_addr constant [21 x i8] c"\00\00\00xARESARES0001\00\00\00\98\00", align 1
@.str.5 = private unnamed_addr constant [13 x i8] c"\00\00\00\01\00\00\00 \00\00\00\02\00", align 1

; Function Attrs: alwaysinline nounwind willreturn memory(none) uwtable
define internal i32 @av_bswap32(i32 noundef %0) #4 {
  %2 = alloca i32, align 4
  store i32 %0, ptr %2, align 4, !tbaa !39
  %3 = load i32, ptr %2, align 4, !tbaa !39
  %4 = shl i32 %3, 8
  %5 = and i32 %4, 65280
  %6 = load i32, ptr %2, align 4, !tbaa !39
  %7 = lshr i32 %6, 8
  %8 = and i32 %7, 255
  %9 = or i32 %5, %8
  %10 = shl i32 %9, 16
  %11 = load i32, ptr %2, align 4, !tbaa !39
  %12 = lshr i32 %11, 16
  %13 = shl i32 %12, 8
  %14 = and i32 %13, 65280
  %15 = load i32, ptr %2, align 4, !tbaa !39
  %16 = lshr i32 %15, 16
  %17 = lshr i32 %16, 8
  %18 = and i32 %17, 255
  %19 = or i32 %14, %18
  %20 = or i32 %10, %19
  ret i32 %20
}

; Function Attrs: cold nounwind optsize uwtable
define internal i32 @avui_encode_init(ptr noundef %0) #0 {
  %2 = alloca i32, align 4
  %3 = alloca ptr, align 8
  store ptr %0, ptr %3, align 8, !tbaa !4
  %4 = load ptr, ptr %3, align 8, !tbaa !4
  %5 = getelementptr inbounds nuw %struct.AVCodecContext, ptr %4, i32 0, i32 18
  %6 = load i32, ptr %5, align 8, !tbaa !9
  %7 = icmp ne i32 %6, 720
  br i1 %7, label %18, label %8

8:                                                ; preds = %1
  %9 = load ptr, ptr %3, align 8, !tbaa !4
  %10 = getelementptr inbounds nuw %struct.AVCodecContext, ptr %9, i32 0, i32 19
  %11 = load i32, ptr %10, align 4, !tbaa !29
  %12 = icmp ne i32 %11, 486
  br i1 %12, label %13, label %20

13:                                               ; preds = %8
  %14 = load ptr, ptr %3, align 8, !tbaa !4
  %15 = getelementptr inbounds nuw %struct.AVCodecContext, ptr %14, i32 0, i32 19
  %16 = load i32, ptr %15, align 4, !tbaa !29
  %17 = icmp ne i32 %16, 576
  br i1 %17, label %18, label %20

18:                                               ; preds = %13, %1
  %19 = load ptr, ptr %3, align 8, !tbaa !4
  call void (ptr, i32, ptr, ...) @av_log(ptr noundef %19, i32 noundef 16, ptr noundef @.str.2)
  store i32 -22, ptr %2, align 4
  br label %71

20:                                               ; preds = %13, %8
  %21 = call noalias ptr @av_mallocz(i64 noundef 208)
  %22 = load ptr, ptr %3, align 8, !tbaa !4
  %23 = getelementptr inbounds nuw %struct.AVCodecContext, ptr %22, i32 0, i32 12
  store ptr %21, ptr %23, align 8, !tbaa !30
  %24 = icmp ne ptr %21, null
  br i1 %24, label %26, label %25

25:                                               ; preds = %20
  store i32 -12, ptr %2, align 4
  br label %71

26:                                               ; preds = %20
  %27 = load ptr, ptr %3, align 8, !tbaa !4
  %28 = getelementptr inbounds nuw %struct.AVCodecContext, ptr %27, i32 0, i32 13
  store i32 144, ptr %28, align 8, !tbaa !31
  %29 = load ptr, ptr %3, align 8, !tbaa !4
  %30 = getelementptr inbounds nuw %struct.AVCodecContext, ptr %29, i32 0, i32 12
  %31 = load ptr, ptr %30, align 8, !tbaa !30
  call void @llvm.memcpy.p0.p0.i64(ptr align 1 %31, ptr align 1 @.str.3, i64 16, i1 false)
  %32 = load ptr, ptr %3, align 8, !tbaa !4
  %33 = getelementptr inbounds nuw %struct.AVCodecContext, ptr %32, i32 0, i32 30
  %34 = load i32, ptr %33, align 4, !tbaa !32
  %35 = icmp ugt i32 %34, 1
  br i1 %35, label %36, label %41

36:                                               ; preds = %26
  %37 = load ptr, ptr %3, align 8, !tbaa !4
  %38 = getelementptr inbounds nuw %struct.AVCodecContext, ptr %37, i32 0, i32 12
  %39 = load ptr, ptr %38, align 8, !tbaa !30
  %40 = getelementptr inbounds i8, ptr %39, i64 19
  store i8 2, ptr %40, align 1, !tbaa !33
  br label %46

41:                                               ; preds = %26
  %42 = load ptr, ptr %3, align 8, !tbaa !4
  %43 = getelementptr inbounds nuw %struct.AVCodecContext, ptr %42, i32 0, i32 12
  %44 = load ptr, ptr %43, align 8, !tbaa !30
  %45 = getelementptr inbounds i8, ptr %44, i64 19
  store i8 1, ptr %45, align 1, !tbaa !33
  br label %46

46:                                               ; preds = %41, %36
  %47 = load ptr, ptr %3, align 8, !tbaa !4
  %48 = getelementptr inbounds nuw %struct.AVCodecContext, ptr %47, i32 0, i32 12
  %49 = load ptr, ptr %48, align 8, !tbaa !30
  %50 = getelementptr inbounds i8, ptr %49, i64 24
  call void @llvm.memcpy.p0.p0.i64(ptr align 1 %50, ptr align 1 @.str.4, i64 20, i1 false)
  %51 = load ptr, ptr %3, align 8, !tbaa !4
  %52 = getelementptr inbounds nuw %struct.AVCodecContext, ptr %51, i32 0, i32 18
  %53 = load i32, ptr %52, align 8, !tbaa !9
  %54 = call i32 @av_bswap32(i32 noundef %53) #7
  %55 = load ptr, ptr %3, align 8, !tbaa !4
  %56 = getelementptr inbounds nuw %struct.AVCodecContext, ptr %55, i32 0, i32 12
  %57 = load ptr, ptr %56, align 8, !tbaa !30
  %58 = getelementptr inbounds i8, ptr %57, i64 44
  store i32 %54, ptr %58, align 1, !tbaa !33
  %59 = load ptr, ptr %3, align 8, !tbaa !4
  %60 = getelementptr inbounds nuw %struct.AVCodecContext, ptr %59, i32 0, i32 19
  %61 = load i32, ptr %60, align 4, !tbaa !29
  %62 = call i32 @av_bswap32(i32 noundef %61) #7
  %63 = load ptr, ptr %3, align 8, !tbaa !4
  %64 = getelementptr inbounds nuw %struct.AVCodecContext, ptr %63, i32 0, i32 12
  %65 = load ptr, ptr %64, align 8, !tbaa !30
  %66 = getelementptr inbounds i8, ptr %65, i64 48
  store i32 %62, ptr %66, align 1, !tbaa !33
  %67 = load ptr, ptr %3, align 8, !tbaa !4
  %68 = getelementptr inbounds nuw %struct.AVCodecContext, ptr %67, i32 0, i32 12
  %69 = load ptr, ptr %68, align 8, !tbaa !30
  %70 = getelementptr inbounds i8, ptr %69, i64 52
  call void @llvm.memcpy.p0.p0.i64(ptr align 1 %70, ptr align 1 @.str.5, i64 12, i1 false)
  store i32 0, ptr %2, align 4
  br label %71

71:                                               ; preds = %46, %25, %18
  %72 = load i32, ptr %2, align 4
  ret i32 %72
}