; Function Attrs: cold nounwind optsize uwtable
define internal range(i32 -22, 1) i32 @avui_encode_init(ptr noundef %0) #0 {
  %2 = getelementptr inbounds nuw i8, ptr %0, i64 112
  %3 = load i32, ptr %2, align 8, !tbaa !4
  %.not = icmp eq i32 %3, 720
  br i1 %.not, label %4, label %7

4:                                                ; preds = %1
  %5 = getelementptr inbounds nuw i8, ptr %0, i64 116
  %6 = load i32, ptr %5, align 4, !tbaa !27
  switch i32 %6, label %7 [
    i32 486, label %8
    i32 576, label %8
  ]

7:                                                ; preds = %4, %1
  tail call void (ptr, i32, ptr, ...) @av_log(ptr noundef nonnull %0, i32 noundef 16, ptr noundef nonnull @.str.2) #6
  br label %25

8:                                                ; preds = %4, %4
  %9 = tail call noalias ptr @av_mallocz(i64 noundef 208) #6
  %10 = getelementptr inbounds nuw i8, ptr %0, i64 72
  store ptr %9, ptr %10, align 8, !tbaa !28
  %.not19 = icmp eq ptr %9, null
  br i1 %.not19, label %25, label %11

11:                                               ; preds = %8
  %12 = getelementptr inbounds nuw i8, ptr %0, i64 80
  store i32 144, ptr %12, align 8, !tbaa !29
  tail call void @llvm.memcpy.p0.p0.i64(ptr noundef nonnull align 1 dereferenceable(16) %9, ptr noundef nonnull align 1 dereferenceable(16) @.str.3, i64 16, i1 false)
  %13 = getelementptr inbounds nuw i8, ptr %0, i64 164
  %14 = load i32, ptr %13, align 4, !tbaa !30
  %15 = icmp ugt i32 %14, 1
  %spec.select = select i1 %15, i8 2, i8 1
  %16 = getelementptr inbounds nuw i8, ptr %9, i64 19
  store i8 %spec.select, ptr %16, align 1, !tbaa !31
  %17 = getelementptr inbounds nuw i8, ptr %9, i64 24
  tail call void @llvm.memcpy.p0.p0.i64(ptr noundef nonnull align 1 dereferenceable(20) %17, ptr noundef nonnull align 1 dereferenceable(20) @.str.4, i64 20, i1 false)
  %18 = load i32, ptr %2, align 8, !tbaa !4
  %19 = tail call i32 @llvm.bswap.i32(i32 %18)
  %20 = getelementptr inbounds nuw i8, ptr %9, i64 44
  store i32 %19, ptr %20, align 1, !tbaa !31
  %21 = load i32, ptr %5, align 4, !tbaa !27
  %22 = tail call i32 @llvm.bswap.i32(i32 %21)
  %23 = getelementptr inbounds nuw i8, ptr %9, i64 48
  store i32 %22, ptr %23, align 1, !tbaa !31
  %24 = getelementptr inbounds nuw i8, ptr %9, i64 52
  tail call void @llvm.memcpy.p0.p0.i64(ptr noundef nonnull align 1 dereferenceable(12) %24, ptr noundef nonnull align 1 dereferenceable(12) @.str.5, i64 12, i1 false)
  br label %25

25:                                               ; preds = %8, %11, %7
  %.0 = phi i32 [ -22, %7 ], [ 0, %11 ], [ -12, %8 ]
  ret i32 %.0
}